target datalayout = "e-m:e-p270:32:32-p271:32:32-p272:64:64-i64:64-i128:128-f80:128-n8:16:32:64-S128"
target triple = "x86_64-pc-linux-gnu"

%struct._value_string = type { i32, ptr }
%struct._StringInfo = type { ptr, i32 }
%struct._packet_info = type { ptr, ptr, i32, i32, %struct.nstime_t, %struct.nstime_t, %struct.nstime_t, i8, ptr, ptr, ptr, ptr, %struct._address, %struct._address, %struct._address, %struct._address, %struct._address, %struct._address, i32, ptr, i8, [3 x i8], %struct.anon, i32, i32, i32, i32, ptr, i8, ptr, ptr, i16, i16, i32, i32, i16, i32, i32, ptr, ptr, ptr, i8, i8, i16, i16, i16, i32, i16, i16, ptr, ptr, ptr, ptr, ptr, i32, i32 }
%struct.nstime_t = type { i64, i32 }
%struct._address = type { i32, i32, ptr, ptr }
%struct.anon = type { i8, [3 x i8] }
%struct._SslSession = type { i32, i32, i16, i8, [32 x i8], i8, i8, i32, i32, i32, %struct._StringInfo, i8, i8, [8 x i8], [8 x i8], [16 x i8], %struct._address, i32, i32, ptr, ptr, ptr, i32, i8, i32, i32, ptr, ptr, i8, i8, i8, i8, i8, [2 x i64], [2 x i64] }

@hf_dtls_alert_message = internal global i32 0, align 4
@hf_dtls_alert_message_level = internal global i32 0, align 4
@ssl_31_alert_level = external constant [0 x %struct._value_string], align 8
@hf_dtls_alert_message_description = internal global i32 0, align 4
@ssl_31_alert_description = external constant [0 x %struct._value_string], align 8
@ett_dtls_alert = internal global i32 0, align 4
@.str.858 = private unnamed_addr constant [5 x i8] c"DTLS\00", align 1
@ssl_version_short_names = external constant [0 x %struct._value_string], align 8
@.str.971 = private unnamed_addr constant [35 x i8] c"Alert (Level: %s, Description: %s)\00", align 1
@.str.972 = private unnamed_addr constant [16 x i8] c"Encrypted Alert\00", align 1
@.str.973 = private unnamed_addr constant [52 x i8] c"%s Record Layer: Alert (Level: %s, Description: %s)\00", align 1
@.str.974 = private unnamed_addr constant [33 x i8] c"%s Record Layer: Encrypted Alert\00", align 1
@.str.975 = private unnamed_addr constant [31 x i8] c"Alert Message: Encrypted Alert\00", align 1

; Function Attrs: null_pointer_is_valid sspstrong uwtable
define internal void @dissect_dtls_alert(ptr noundef %0, ptr noundef %1, ptr noundef %2, i32 noundef %3, ptr noundef %4) #0 {
  %6 = alloca ptr, align 8
  %7 = alloca ptr, align 8
  %8 = alloca ptr, align 8
  %9 = alloca i32, align 4
  %10 = alloca ptr, align 8
  %11 = alloca ptr, align 8
  %12 = alloca ptr, align 8
  %13 = alloca ptr, align 8
  %14 = alloca ptr, align 8
  %15 = alloca i8, align 1
  store ptr %0, ptr %6, align 8
  store ptr %1, ptr %7, align 8
  store ptr %2, ptr %8, align 8
  store i32 %3, ptr %9, align 4
  store ptr %4, ptr %10, align 8
  call void @llvm.lifetime.start.p0(i64 8, ptr %11) #12
  call void @llvm.lifetime.start.p0(i64 8, ptr %12) #12
  call void @llvm.lifetime.start.p0(i64 8, ptr %13) #12
  call void @llvm.lifetime.start.p0(i64 8, ptr %14) #12
  call void @llvm.lifetime.start.p0(i64 1, ptr %15) #12
  %16 = load ptr, ptr %8, align 8
  %17 = load i32, ptr @hf_dtls_alert_message, align 4
  %18 = load ptr, ptr %6, align 8
  %19 = load i32, ptr %9, align 4
  %20 = call ptr @proto_tree_add_item(ptr noundef %16, i32 noundef %17, ptr noundef %18, i32 noundef %19, i32 noundef 2, i32 noundef 0)
  store ptr %20, ptr %11, align 8
  %21 = load ptr, ptr %11, align 8
  %22 = load i32, ptr @ett_dtls_alert, align 4
  %23 = call ptr @proto_item_add_subtree(ptr noundef %21, i32 noundef %22)
  store ptr %23, ptr %12, align 8
  %24 = load ptr, ptr %6, align 8
  %25 = load i32, ptr %9, align 4
  %26 = call zeroext i8 @tvb_get_uint8(ptr noundef %24, i32 noundef %25)
  store i8 %26, ptr %15, align 1
  %27 = load i8, ptr %15, align 1
  %28 = zext i8 %27 to i32
  %29 = call ptr @try_val_to_str(i32 noundef %28, ptr noundef @ssl_31_alert_level)
  store ptr %29, ptr %13, align 8
  %30 = load ptr, ptr %6, align 8
  %31 = load i32, ptr %9, align 4
  %32 = add i32 %31, 1
  %33 = call zeroext i8 @tvb_get_uint8(ptr noundef %30, i32 noundef %32)
  store i8 %33, ptr %15, align 1
  %34 = load i8, ptr %15, align 1
  %35 = zext i8 %34 to i32
  %36 = call ptr @try_val_to_str(i32 noundef %35, ptr noundef @ssl_31_alert_description)
  store ptr %36, ptr %14, align 8
  %37 = load ptr, ptr %13, align 8
  %38 = icmp ne ptr %37, null
  br i1 %38, label %39, label %48

39:                                               ; preds = %5
  %40 = load ptr, ptr %14, align 8
  %41 = icmp ne ptr %40, null
  br i1 %41, label %42, label %48

42:                                               ; preds = %39
  %43 = load ptr, ptr %7, align 8
  %44 = getelementptr inbounds nuw %struct._packet_info, ptr %43, i32 0, i32 1
  %45 = load ptr, ptr %44, align 8
  %46 = load ptr, ptr %13, align 8
  %47 = load ptr, ptr %14, align 8
  call void (ptr, i32, ptr, ptr, ...) @col_append_sep_fstr(ptr noundef %45, i32 noundef 25, ptr noundef null, ptr noundef @.str.971, ptr noundef %46, ptr noundef %47)
  br label %52

48:                                               ; preds = %39, %5
  %49 = load ptr, ptr %7, align 8
  %50 = getelementptr inbounds nuw %struct._packet_info, ptr %49, i32 0, i32 1
  %51 = load ptr, ptr %50, align 8
  call void @col_append_sep_str(ptr noundef %51, i32 noundef 25, ptr noundef null, ptr noundef @.str.972)
  br label %52

52:                                               ; preds = %48, %42
  %53 = load ptr, ptr %8, align 8
  %54 = icmp ne ptr %53, null
  br i1 %54, label %55, label %90

55:                                               ; preds = %52
  %56 = load ptr, ptr %13, align 8
  %57 = icmp ne ptr %56, null
  br i1 %57, label %58, label %81

58:                                               ; preds = %55
  %59 = load ptr, ptr %14, align 8
  %60 = icmp ne ptr %59, null
  br i1 %60, label %61, label %81

61:                                               ; preds = %58
  %62 = load ptr, ptr %8, align 8
  %63 = load ptr, ptr %10, align 8
  %64 = getelementptr inbounds nuw %struct._SslSession, ptr %63, i32 0, i32 2
  %65 = load i16, ptr %64, align 8
  %66 = zext i16 %65 to i32
  %67 = call ptr @val_to_str_const(i32 noundef %66, ptr noundef @ssl_version_short_names, ptr noundef @.str.858)
  %68 = load ptr, ptr %13, align 8
  %69 = load ptr, ptr %14, align 8
  call void (ptr, ptr, ...) @proto_item_set_text(ptr noundef %62, ptr noundef @.str.973, ptr noundef %67, ptr noundef %68, ptr noundef %69)
  %70 = load ptr, ptr %12, align 8
  %71 = load i32, ptr @hf_dtls_alert_message_level, align 4
  %72 = load ptr, ptr %6, align 8
  %73 = load i32, ptr %9, align 4
  %74 = add i32 %73, 1
  store i32 %74, ptr %9, align 4
  %75 = call ptr @proto_tree_add_item(ptr noundef %70, i32 noundef %71, ptr noundef %72, i32 noundef %73, i32 noundef 1, i32 noundef 0)
  %76 = load ptr, ptr %12, align 8
  %77 = load i32, ptr @hf_dtls_alert_message_description, align 4
  %78 = load ptr, ptr %6, align 8
  %79 = load i32, ptr %9, align 4
  %80 = call ptr @proto_tree_add_item(ptr noundef %76, i32 noundef %77, ptr noundef %78, i32 noundef %79, i32 noundef 1, i32 noundef 0)
  br label %89

81:                                               ; preds = %58, %55
  %82 = load ptr, ptr %8, align 8
  %83 = load ptr, ptr %10, align 8
  %84 = getelementptr inbounds nuw %struct._SslSession, ptr %83, i32 0, i32 2
  %85 = load i16, ptr %84, align 8
  %86 = zext i16 %85 to i32
  %87 = call ptr @val_to_str_const(i32 noundef %86, ptr noundef @ssl_version_short_names, ptr noundef @.str.858)
  call void (ptr, ptr, ...) @proto_item_set_text(ptr noundef %82, ptr noundef @.str.974, ptr noundef %87)
  %88 = load ptr, ptr %12, align 8
  call void (ptr, ptr, ...) @proto_item_set_text(ptr noundef %88, ptr noundef @.str.975)
  br label %89

89:                                               ; preds = %81, %61
  br label %90

90:                                               ; preds = %89, %52
  call void @llvm.lifetime.end.p0(i64 1, ptr %15) #12
  call void @llvm.lifetime.end.p0(i64 8, ptr %14) #12
  call void @llvm.lifetime.end.p0(i64 8, ptr %13) #12
  call void @llvm.lifetime.end.p0(i64 8, ptr %12) #12
  call void @llvm.lifetime.end.p0(i64 8, ptr %11) #12
  ret void
}