; Function Attrs: null_pointer_is_valid sspstrong uwtable
define internal fastcc void @dissect_dtls_alert(ptr noundef %0, ptr noundef readonly captures(none) %1, ptr noundef %2, i32 noundef %3, ptr noundef readonly captures(none) %4) unnamed_addr #0 {
  %6 = load i32, ptr @hf_dtls_alert_message, align 4
  %7 = tail call ptr @proto_tree_add_item(ptr noundef %2, i32 noundef %6, ptr noundef %0, i32 noundef %3, i32 noundef 2, i32 noundef 0)
  %8 = load i32, ptr @ett_dtls_alert, align 4
  %9 = tail call ptr @proto_item_add_subtree(ptr noundef %7, i32 noundef %8)
  %10 = tail call zeroext i8 @tvb_get_uint8(ptr noundef %0, i32 noundef %3)
  %11 = zext i8 %10 to i32
  %12 = tail call ptr @try_val_to_str(i32 noundef %11, ptr noundef nonnull @ssl_31_alert_level)
  %13 = add i32 %3, 1
  %14 = tail call zeroext i8 @tvb_get_uint8(ptr noundef %0, i32 noundef %13)
  %15 = zext i8 %14 to i32
  %16 = tail call ptr @try_val_to_str(i32 noundef %15, ptr noundef nonnull @ssl_31_alert_description)
  %17 = icmp ne ptr %12, null
  %18 = icmp ne ptr %16, null
  %or.cond = select i1 %17, i1 %18, i1 false
  %19 = getelementptr inbounds nuw i8, ptr %1, i64 8
  %20 = load ptr, ptr %19, align 8
  %.not = icmp eq ptr %2, null
  br i1 %or.cond, label %21, label %.thread

21:                                               ; preds = %5
  tail call void (ptr, i32, ptr, ptr, ...) @col_append_sep_fstr(ptr noundef %20, i32 noundef 25, ptr noundef null, ptr noundef nonnull @.str.971, ptr noundef nonnull %12, ptr noundef nonnull %16)
  br i1 %.not, label %35, label %22

.thread:                                          ; preds = %5
  tail call void @col_append_sep_str(ptr noundef %20, i32 noundef 25, ptr noundef null, ptr noundef nonnull @.str.972)
  br i1 %.not, label %35, label %.thread38

22:                                               ; preds = %21
  %23 = getelementptr inbounds nuw i8, ptr %4, i64 8
  %24 = load i16, ptr %23, align 8
  %25 = zext i16 %24 to i32
  %26 = tail call ptr @val_to_str_const(i32 noundef %25, ptr noundef nonnull @ssl_version_short_names, ptr noundef nonnull @.str.858)
  tail call void (ptr, ptr, ...) @proto_item_set_text(ptr noundef nonnull %2, ptr noundef nonnull @.str.973, ptr noundef %26, ptr noundef nonnull %12, ptr noundef nonnull %16)
  %27 = load i32, ptr @hf_dtls_alert_message_level, align 4
  %28 = tail call ptr @proto_tree_add_item(ptr noundef %9, i32 noundef %27, ptr noundef %0, i32 noundef %3, i32 noundef 1, i32 noundef 0)
  %29 = load i32, ptr @hf_dtls_alert_message_description, align 4
  %30 = tail call ptr @proto_tree_add_item(ptr noundef %9, i32 noundef %29, ptr noundef %0, i32 noundef %13, i32 noundef 1, i32 noundef 0)
  br label %35

.thread38:                                        ; preds = %.thread
  %31 = getelementptr inbounds nuw i8, ptr %4, i64 8
  %32 = load i16, ptr %31, align 8
  %33 = zext i16 %32 to i32
  %34 = tail call ptr @val_to_str_const(i32 noundef %33, ptr noundef nonnull @ssl_version_short_names, ptr noundef nonnull @.str.858)
  tail call void (ptr, ptr, ...) @proto_item_set_text(ptr noundef nonnull %2, ptr noundef nonnull @.str.974, ptr noundef %34)
  tail call void (ptr, ptr, ...) @proto_item_set_text(ptr noundef %9, ptr noundef nonnull @.str.975)
  br label %35

35:                                               ; preds = %.thread, %22, %.thread38, %21
  ret void
}